; Function Attrs: nounwind uwtable
define void @_ZThn72_N8proxygen15RateLimitFilter14timeoutExpiredEv(ptr noundef %this) unnamed_addr #10 align 2 personality ptr @__gxx_personality_v0 {
entry:
  %0 = getelementptr inbounds i8, ptr %this, i64 -72
  %numEventsInCurrentInterval_.i = getelementptr inbounds i8, ptr %this, i64 64
  %1 = load i32, ptr %numEventsInCurrentInterval_.i, align 8
  %vtable.i = load ptr, ptr %0, align 8
  %vfn.i = getelementptr inbounds i8, ptr %vtable.i, i64 656
  %2 = load ptr, ptr %vfn.i, align 8
  invoke void %2(ptr noundef nonnull align 8 dereferenceable(168) %0, i32 noundef %1)
          to label %_ZN8proxygen15RateLimitFilter14timeoutExpiredEv.exit unwind label %terminate.lpad.i

terminate.lpad.i:                                 ; preds = %entry
  %3 = landingpad { ptr, i32 }
          catch ptr null
  %4 = extractvalue { ptr, i32 } %3, 0
  tail call void @__clang_call_terminate(ptr %4) #22
  unreachable

_ZN8proxygen15RateLimitFilter14timeoutExpiredEv.exit: ; preds = %entry
  store i32 0, ptr %numEventsInCurrentInterval_.i, align 8
  ret void
}